target datalayout = "e-m:e-p270:32:32-p271:32:32-p272:64:64-i64:64-i128:128-f80:128-n8:16:32:64-S128"
target triple = "x86_64-pc-linux-gnu"

%struct.rb_id_table = type { i32, i32, i32, ptr }
%struct.rbimpl_size_mul_overflow_tag = type { i8, i64 }

; Function Attrs: inlinehint nounwind sspstrong willreturn memory(none) uwtable
define internal { i8, i64 } @rbimpl_size_mul_overflow(i64 noundef %0, i64 noundef %1) #6 {
  %3 = alloca %struct.rbimpl_size_mul_overflow_tag, align 8
  %4 = alloca i64, align 8
  %5 = alloca i64, align 8
  store i64 %0, ptr %4, align 8, !tbaa !11
  store i64 %1, ptr %5, align 8, !tbaa !11
  call void @llvm.memset.p0.i64(ptr align 8 %3, i8 0, i64 16, i1 false)
  %6 = load i64, ptr %4, align 8, !tbaa !11
  %7 = load i64, ptr %5, align 8, !tbaa !11
  %8 = getelementptr inbounds nuw %struct.rbimpl_size_mul_overflow_tag, ptr %3, i32 0, i32 1
  %9 = call { i64, i1 } @llvm.umul.with.overflow.i64(i64 %6, i64 %7)
  %10 = extractvalue { i64, i1 } %9, 1
  %11 = extractvalue { i64, i1 } %9, 0
  store i64 %11, ptr %8, align 8
  %12 = getelementptr inbounds nuw %struct.rbimpl_size_mul_overflow_tag, ptr %3, i32 0, i32 0
  %13 = zext i1 %10 to i8
  store i8 %13, ptr %12, align 8, !tbaa !69
  %14 = load { i8, i64 }, ptr %3, align 8
  ret { i8, i64 } %14
}

; Function Attrs: inlinehint nounwind sspstrong uwtable
define internal i32 @round_capa(i32 noundef %0) #4 {
  %2 = alloca i32, align 4
  store i32 %0, ptr %2, align 4, !tbaa !21
  %3 = load i32, ptr %2, align 4, !tbaa !21
  %4 = ashr i32 %3, 2
  store i32 %4, ptr %2, align 4, !tbaa !21
  %5 = load i32, ptr %2, align 4, !tbaa !21
  %6 = ashr i32 %5, 1
  %7 = load i32, ptr %2, align 4, !tbaa !21
  %8 = or i32 %7, %6
  store i32 %8, ptr %2, align 4, !tbaa !21
  %9 = load i32, ptr %2, align 4, !tbaa !21
  %10 = ashr i32 %9, 2
  %11 = load i32, ptr %2, align 4, !tbaa !21
  %12 = or i32 %11, %10
  store i32 %12, ptr %2, align 4, !tbaa !21
  %13 = load i32, ptr %2, align 4, !tbaa !21
  %14 = ashr i32 %13, 4
  %15 = load i32, ptr %2, align 4, !tbaa !21
  %16 = or i32 %15, %14
  store i32 %16, ptr %2, align 4, !tbaa !21
  %17 = load i32, ptr %2, align 4, !tbaa !21
  %18 = ashr i32 %17, 8
  %19 = load i32, ptr %2, align 4, !tbaa !21
  %20 = or i32 %19, %18
  store i32 %20, ptr %2, align 4, !tbaa !21
  %21 = load i32, ptr %2, align 4, !tbaa !21
  %22 = ashr i32 %21, 16
  %23 = load i32, ptr %2, align 4, !tbaa !21
  %24 = or i32 %23, %22
  store i32 %24, ptr %2, align 4, !tbaa !21
  %25 = load i32, ptr %2, align 4, !tbaa !21
  %26 = add i32 %25, 1
  %27 = shl i32 %26, 2
  ret i32 %27
}

; Function Attrs: alwaysinline nounwind
define internal ptr @memset.inline(ptr nonnull %0, i32 %1, i64 %2) #15 {
  %4 = alloca ptr, align 8
  %5 = alloca i32, align 4
  %6 = alloca i64, align 8
  store ptr %0, ptr %4, align 8, !tbaa !7
  store i32 %1, ptr %5, align 4, !tbaa !21
  store i64 %2, ptr %6, align 8, !tbaa !11
  %7 = load ptr, ptr %4, align 8, !tbaa !7
  %8 = load i32, ptr %5, align 4, !tbaa !21
  %9 = load i64, ptr %6, align 8, !tbaa !11
  %10 = load ptr, ptr %4, align 8, !tbaa !7
  %11 = call i64 @llvm.objectsize.i64.p0(ptr %10, i1 false, i1 true, i1 false)
  %12 = call ptr @__memset_chk(ptr noundef %7, i32 noundef %8, i64 noundef %9, i64 noundef %11) #24
  ret ptr %12
}

; Function Attrs: inlinehint nounwind sspstrong uwtable
define internal i64 @rbimpl_size_mul_or_raise(i64 noundef %0, i64 noundef %1) #4 {
  %3 = alloca i64, align 8
  %4 = alloca i64, align 8
  %5 = alloca %struct.rbimpl_size_mul_overflow_tag, align 8
  store i64 %0, ptr %3, align 8, !tbaa !11
  store i64 %1, ptr %4, align 8, !tbaa !11
  call void @llvm.lifetime.start.p0(i64 16, ptr %5) #24
  %6 = load i64, ptr %3, align 8, !tbaa !11
  %7 = load i64, ptr %4, align 8, !tbaa !11
  %8 = call { i8, i64 } @rbimpl_size_mul_overflow(i64 noundef %6, i64 noundef %7) #25
  %9 = getelementptr inbounds nuw { i8, i64 }, ptr %5, i32 0, i32 0
  %10 = extractvalue { i8, i64 } %8, 0
  store i8 %10, ptr %9, align 8
  %11 = getelementptr inbounds nuw { i8, i64 }, ptr %5, i32 0, i32 1
  %12 = extractvalue { i8, i64 } %8, 1
  store i64 %12, ptr %11, align 8
  %13 = getelementptr inbounds nuw %struct.rbimpl_size_mul_overflow_tag, ptr %5, i32 0, i32 0
  %14 = load i8, ptr %13, align 8, !tbaa !69, !range !44, !noundef !45
  %15 = trunc i8 %14 to i1
  %16 = xor i1 %15, true
  %17 = xor i1 %16, true
  %18 = xor i1 %17, true
  %19 = zext i1 %18 to i32
  %20 = sext i32 %19 to i64
  %21 = call i64 @llvm.expect.i64(i64 %20, i64 1)
  %22 = icmp ne i64 %21, 0
  br i1 %22, label %23, label %26

23:                                               ; preds = %2
  %24 = getelementptr inbounds nuw %struct.rbimpl_size_mul_overflow_tag, ptr %5, i32 0, i32 1
  %25 = load i64, ptr %24, align 8, !tbaa !71
  call void @llvm.lifetime.end.p0(i64 16, ptr %5) #24
  ret i64 %25

26:                                               ; preds = %2
  %27 = load i64, ptr %3, align 8, !tbaa !11
  %28 = load i64, ptr %4, align 8, !tbaa !11
  call void @ruby_malloc_size_overflow(i64 noundef %27, i64 noundef %28) #26
  unreachable
}

; Function Attrs: nounwind sspstrong uwtable
define internal ptr @rb_id_table_init(ptr noundef %0, i32 noundef %1) #0 {
  %3 = alloca ptr, align 8
  %4 = alloca i32, align 4
  store ptr %0, ptr %3, align 8, !tbaa !61
  store i32 %1, ptr %4, align 4, !tbaa !21
  %5 = load ptr, ptr %3, align 8, !tbaa !61
  %6 = call i64 @rbimpl_size_mul_or_raise(i64 noundef 24, i64 noundef 1)
  %7 = call ptr @memset.inline(ptr noundef %5, i32 noundef 0, i64 noundef %6) #24
  %8 = load i32, ptr %4, align 4, !tbaa !21
  %9 = icmp sgt i32 %8, 0
  br i1 %9, label %10, label %21

10:                                               ; preds = %2
  %11 = load i32, ptr %4, align 4, !tbaa !21
  %12 = call i32 @round_capa(i32 noundef %11)
  store i32 %12, ptr %4, align 4, !tbaa !21
  %13 = load i32, ptr %4, align 4, !tbaa !21
  %14 = load ptr, ptr %3, align 8, !tbaa !61
  %15 = getelementptr inbounds nuw %struct.rb_id_table, ptr %14, i32 0, i32 0
  store i32 %13, ptr %15, align 8, !tbaa !63
  %16 = load i32, ptr %4, align 4, !tbaa !21
  %17 = sext i32 %16 to i64
  %18 = call noalias nonnull ptr @ruby_xcalloc(i64 noundef %17, i64 noundef 16) #31
  %19 = load ptr, ptr %3, align 8, !tbaa !61
  %20 = getelementptr inbounds nuw %struct.rb_id_table, ptr %19, i32 0, i32 3
  store ptr %18, ptr %20, align 8, !tbaa !66
  br label %21

21:                                               ; preds = %10, %2
  %22 = load ptr, ptr %3, align 8, !tbaa !61
  ret ptr %22
}

; Function Attrs: nounwind sspstrong uwtable
define hidden ptr @rb_id_table_create(i64 noundef %0) #0 {
  %2 = alloca i64, align 8
  %3 = alloca ptr, align 8
  store i64 %0, ptr %2, align 8, !tbaa !11
  call void @llvm.lifetime.start.p0(i64 8, ptr %3) #24
  %4 = call noalias nonnull ptr @ruby_xmalloc(i64 noundef 24) #30
  store ptr %4, ptr %3, align 8, !tbaa !61
  %5 = load ptr, ptr %3, align 8, !tbaa !61
  %6 = load i64, ptr %2, align 8, !tbaa !11
  %7 = trunc i64 %6 to i32
  %8 = call ptr @rb_id_table_init(ptr noundef %5, i32 noundef %7)
  call void @llvm.lifetime.end.p0(i64 8, ptr %3) #24
  ret ptr %8
}