; Function Attrs: nounwind sspstrong uwtable
define hidden noalias noundef nonnull ptr @rb_id_table_create(i64 noundef %0) local_unnamed_addr #0 {
  %2 = tail call noalias nonnull dereferenceable(24) ptr @ruby_xmalloc(i64 noundef 24) #23
  %3 = trunc i64 %0 to i32
  tail call void @llvm.memset.p0.i64(ptr noundef nonnull align 1 dereferenceable(24) %2, i8 noundef 0, i64 noundef range(i64 -51539607552, 51539607529) 24, i1 noundef false) #19
  %4 = icmp sgt i32 %3, 0
  br i1 %4, label %5, label %rb_id_table_init.exit

5:                                                ; preds = %1
  %6 = lshr i32 %3, 2
  %7 = lshr i32 %3, 3
  %8 = or i32 %6, %3
  %9 = or i32 %8, %7
  %10 = lshr i32 %9, 2
  %11 = or i32 %10, %7
  %12 = lshr i32 %11, 4
  %13 = or i32 %12, %11
  %14 = lshr i32 %13, 8
  %15 = or i32 %14, %13
  %16 = lshr i32 %15, 16
  %17 = or i32 %16, %15
  %18 = shl nuw nsw i32 %17, 2
  %19 = add nuw i32 %18, 4
  store i32 %19, ptr %2, align 8, !tbaa !82
  %20 = sext i32 %19 to i64
  %21 = tail call noalias nonnull ptr @ruby_xcalloc(i64 noundef %20, i64 noundef 16) #24
  %22 = getelementptr inbounds nuw i8, ptr %2, i64 16
  store ptr %21, ptr %22, align 8, !tbaa !85
  br label %rb_id_table_init.exit

rb_id_table_init.exit:                            ; preds = %1, %5
  ret ptr %2
}